target datalayout = "e-m:e-p270:32:32-p271:32:32-p272:64:64-i64:64-i128:128-f80:128-n8:16:32:64-S128"
target triple = "x86_64-pc-linux-gnu"

; Function Attrs: nounwind null_pointer_is_valid sspstrong uwtable
define internal i32 @uds_sa_subfunction_to_type(i8 noundef zeroext %0) #3 {
  %2 = alloca i32, align 4
  %3 = alloca i8, align 1
  store i8 %0, ptr %3, align 1
  %4 = load i8, ptr %3, align 1
  %5 = zext i8 %4 to i32
  %6 = and i32 %5, 127
  %7 = trunc i32 %6 to i8
  store i8 %7, ptr %3, align 1
  %8 = load i8, ptr %3, align 1
  %9 = zext i8 %8 to i32
  %10 = icmp eq i32 %9, 0
  br i1 %10, label %23, label %11

11:                                               ; preds = %1
  %12 = load i8, ptr %3, align 1
  %13 = zext i8 %12 to i32
  %14 = icmp sle i32 67, %13
  br i1 %14, label %15, label %19

15:                                               ; preds = %11
  %16 = load i8, ptr %3, align 1
  %17 = zext i8 %16 to i32
  %18 = icmp sle i32 %17, 94
  br i1 %18, label %23, label %19

19:                                               ; preds = %15, %11
  %20 = load i8, ptr %3, align 1
  %21 = zext i8 %20 to i32
  %22 = icmp eq i32 %21, 127
  br i1 %22, label %23, label %24

23:                                               ; preds = %19, %15, %1
  store i32 0, ptr %2, align 4
  br label %56

24:                                               ; preds = %19
  %25 = load i8, ptr %3, align 1
  %26 = zext i8 %25 to i32
  %27 = icmp eq i32 %26, 95
  br i1 %27, label %28, label %29

28:                                               ; preds = %24
  store i32 3, ptr %2, align 4
  br label %56

29:                                               ; preds = %24
  %30 = load i8, ptr %3, align 1
  %31 = zext i8 %30 to i32
  %32 = icmp eq i32 %31, 96
  br i1 %32, label %33, label %34

33:                                               ; preds = %29
  store i32 4, ptr %2, align 4
  br label %56

34:                                               ; preds = %29
  %35 = load i8, ptr %3, align 1
  %36 = zext i8 %35 to i32
  %37 = icmp sle i32 97, %36
  br i1 %37, label %38, label %43

38:                                               ; preds = %34
  %39 = load i8, ptr %3, align 1
  %40 = zext i8 %39 to i32
  %41 = icmp sle i32 %40, 126
  br i1 %41, label %42, label %43

42:                                               ; preds = %38
  store i32 254, ptr %2, align 4
  br label %56

43:                                               ; preds = %38, %34
  %44 = load i8, ptr %3, align 1
  %45 = zext i8 %44 to i32
  %46 = and i32 %45, 1
  %47 = icmp eq i32 %46, 1
  br i1 %47, label %48, label %49

48:                                               ; preds = %43
  store i32 1, ptr %2, align 4
  br label %56

49:                                               ; preds = %43
  %50 = load i8, ptr %3, align 1
  %51 = zext i8 %50 to i32
  %52 = and i32 %51, 1
  %53 = icmp eq i32 %52, 0
  br i1 %53, label %54, label %55

54:                                               ; preds = %49
  store i32 2, ptr %2, align 4
  br label %56

55:                                               ; preds = %49
  store i32 255, ptr %2, align 4
  br label %56

56:                                               ; preds = %55, %54, %48, %42, %33, %28, %23
  %57 = load i32, ptr %2, align 4
  ret i32 %57
}