; Function Attrs: mustprogress nofree norecurse nosync nounwind null_pointer_is_valid sspstrong willreturn memory(none) uwtable
define internal fastcc range(i32 0, 255) i32 @uds_sa_subfunction_to_type(i8 noundef zeroext %0) unnamed_addr #4 {
  %2 = and i8 %0, 127
  %3 = icmp eq i8 %2, 0
  br i1 %3, label %13, label %4

4:                                                ; preds = %1
  %5 = add nsw i8 %2, -67
  %or.cond = icmp ult i8 %5, 28
  %6 = icmp eq i8 %2, 127
  %or.cond5 = or i1 %6, %or.cond
  br i1 %or.cond5, label %13, label %7

7:                                                ; preds = %4
  switch i8 %2, label %9 [
    i8 95, label %13
    i8 96, label %8
  ]

8:                                                ; preds = %7
  br label %13

9:                                                ; preds = %7
  %10 = icmp samesign ugt i8 %2, 96
  br i1 %10, label %13, label %11

11:                                               ; preds = %9
  %12 = and i8 %0, 1
  %.not = icmp eq i8 %12, 0
  %spec.select = select i1 %.not, i32 2, i32 1
  br label %13

13:                                               ; preds = %11, %9, %7, %1, %4, %8
  %.0 = phi i32 [ 4, %8 ], [ 0, %4 ], [ 0, %1 ], [ 3, %7 ], [ 254, %9 ], [ %spec.select, %11 ]
  ret i32 %.0
}